; Listing generated by Microsoft (R) Optimizing Compiler Version 19.24.28315.0 

include listing.inc

INCLUDELIB LIBCMT
INCLUDELIB OLDNAMES

PUBLIC	__local_stdio_printf_options
PUBLIC	__local_stdio_scanf_options
PUBLIC	_vfprintf_l
PUBLIC	printf
PUBLIC	_vfscanf_l
PUBLIC	scanf
PUBLIC	main
EXTRN	__acrt_iob_func:PROC
EXTRN	__stdio_common_vfprintf:PROC
EXTRN	__stdio_common_vfscanf:PROC
_DATA	SEGMENT
COMM	?_OptionsStorage@?1??__local_stdio_printf_options@@9@9:QWORD							; `__local_stdio_printf_options'::`2'::_OptionsStorage
COMM	?_OptionsStorage@?1??__local_stdio_scanf_options@@9@9:QWORD							; `__local_stdio_scanf_options'::`2'::_OptionsStorage
_DATA	ENDS
;	COMDAT pdata
pdata	SEGMENT
$pdata$_vfprintf_l DD imagerel $LN3
	DD	imagerel $LN3+67
	DD	imagerel $unwind$_vfprintf_l
pdata	ENDS
;	COMDAT pdata
pdata	SEGMENT
$pdata$printf DD imagerel $LN3
	DD	imagerel $LN3+87
	DD	imagerel $unwind$printf
pdata	ENDS
;	COMDAT pdata
pdata	SEGMENT
$pdata$_vfscanf_l DD imagerel $LN3
	DD	imagerel $LN3+67
	DD	imagerel $unwind$_vfscanf_l
pdata	ENDS
;	COMDAT pdata
pdata	SEGMENT
$pdata$scanf DD	imagerel $LN3
	DD	imagerel $LN3+84
	DD	imagerel $unwind$scanf
pdata	ENDS
pdata	SEGMENT
$pdata$main DD	imagerel $LN3
	DD	imagerel $LN3+69
	DD	imagerel $unwind$main
pdata	ENDS
_DATA	SEGMENT
$SG10417 DB	'Enter n:', 00H
	ORG $+3
$SG10418 DB	'%d', 00H
	ORG $+1
$SG10419 DB	'rs = %d', 0aH, 00H
_DATA	ENDS
xdata	SEGMENT
$unwind$main DD	010401H
	DD	06204H
xdata	ENDS
;	COMDAT xdata
xdata	SEGMENT
$unwind$scanf DD 011801H
	DD	06218H
xdata	ENDS
;	COMDAT xdata
xdata	SEGMENT
$unwind$_vfscanf_l DD 011801H
	DD	06218H
xdata	ENDS
;	COMDAT xdata
xdata	SEGMENT
$unwind$printf DD 011801H
	DD	06218H
xdata	ENDS
;	COMDAT xdata
xdata	SEGMENT
$unwind$_vfprintf_l DD 011801H
	DD	06218H
xdata	ENDS
; Function compile flags: /Odtp
_TEXT	SEGMENT
n$ = 32
rs$ = 36
main	PROC
; File C:\Users\yoges\OneDrive\Documents\CPA\CLASS\C\MST_3\SESSION_123\inline_functions.c
; Line 6
$LN3:
	sub	rsp, 56					; 00000038H
; Line 10
	lea	rcx, OFFSET FLAT:$SG10417
	call	printf
; Line 11
	lea	rdx, QWORD PTR n$[rsp]
	lea	rcx, OFFSET FLAT:$SG10418
	call	scanf
; Line 13
	mov	ecx, DWORD PTR n$[rsp]
	call	my_square
	mov	DWORD PTR rs$[rsp], eax
; Line 14
	mov	edx, DWORD PTR rs$[rsp]
	lea	rcx, OFFSET FLAT:$SG10419
	call	printf
; Line 16
	xor	eax, eax
; Line 17
	add	rsp, 56					; 00000038H
	ret	0
main	ENDP
_TEXT	ENDS
; Function compile flags: /Odtp
_TEXT	SEGMENT
n$ = 8
my_square PROC
; File C:\Users\yoges\OneDrive\Documents\CPA\CLASS\C\MST_3\SESSION_123\my_header.h
; Line 4
	mov	DWORD PTR [rsp+8], ecx
; Line 5
	mov	eax, DWORD PTR n$[rsp]
	imul	eax, DWORD PTR n$[rsp]
; Line 6
	ret	0
my_square ENDP
_TEXT	ENDS
; Function compile flags: /Odtp
;	COMDAT scanf
_TEXT	SEGMENT
_Result$ = 32
_ArgList$ = 40
_Format$ = 64
scanf	PROC						; COMDAT
; File C:\Program Files (x86)\Windows Kits\10\include\10.0.19041.0\ucrt\stdio.h
; Line 1282
$LN3:
	mov	QWORD PTR [rsp+8], rcx
	mov	QWORD PTR [rsp+16], rdx
	mov	QWORD PTR [rsp+24], r8
	mov	QWORD PTR [rsp+32], r9
	sub	rsp, 56					; 00000038H
; Line 1285
	lea	rax, QWORD PTR _Format$[rsp+8]
	mov	QWORD PTR _ArgList$[rsp], rax
; Line 1286
	xor	ecx, ecx
	call	__acrt_iob_func
	mov	r9, QWORD PTR _ArgList$[rsp]
	xor	r8d, r8d
	mov	rdx, QWORD PTR _Format$[rsp]
	mov	rcx, rax
	call	_vfscanf_l
	mov	DWORD PTR _Result$[rsp], eax
; Line 1287
	mov	QWORD PTR _ArgList$[rsp], 0
; Line 1288
	mov	eax, DWORD PTR _Result$[rsp]
; Line 1289
	add	rsp, 56					; 00000038H
	ret	0
scanf	ENDP
_TEXT	ENDS
; Function compile flags: /Odtp
;	COMDAT _vfscanf_l
_TEXT	SEGMENT
_Stream$ = 64
_Format$ = 72
_Locale$ = 80
_ArgList$ = 88
_vfscanf_l PROC						; COMDAT
; File C:\Program Files (x86)\Windows Kits\10\include\10.0.19041.0\ucrt\stdio.h
; Line 1064
$LN3:
	mov	QWORD PTR [rsp+32], r9
	mov	QWORD PTR [rsp+24], r8
	mov	QWORD PTR [rsp+16], rdx
	mov	QWORD PTR [rsp+8], rcx
	sub	rsp, 56					; 00000038H
; Line 1065
	call	__local_stdio_scanf_options
	mov	rcx, QWORD PTR _ArgList$[rsp]
	mov	QWORD PTR [rsp+32], rcx
	mov	r9, QWORD PTR _Locale$[rsp]
	mov	r8, QWORD PTR _Format$[rsp]
	mov	rdx, QWORD PTR _Stream$[rsp]
	mov	rcx, QWORD PTR [rax]
	call	__stdio_common_vfscanf
; Line 1068
	add	rsp, 56					; 00000038H
	ret	0
_vfscanf_l ENDP
_TEXT	ENDS
; Function compile flags: /Odtp
;	COMDAT printf
_TEXT	SEGMENT
_Result$ = 32
_ArgList$ = 40
_Format$ = 64
printf	PROC						; COMDAT
; File C:\Program Files (x86)\Windows Kits\10\include\10.0.19041.0\ucrt\stdio.h
; Line 956
$LN3:
	mov	QWORD PTR [rsp+8], rcx
	mov	QWORD PTR [rsp+16], rdx
	mov	QWORD PTR [rsp+24], r8
	mov	QWORD PTR [rsp+32], r9
	sub	rsp, 56					; 00000038H
; Line 959
	lea	rax, QWORD PTR _Format$[rsp+8]
	mov	QWORD PTR _ArgList$[rsp], rax
; Line 960
	mov	ecx, 1
	call	__acrt_iob_func
	mov	r9, QWORD PTR _ArgList$[rsp]
	xor	r8d, r8d
	mov	rdx, QWORD PTR _Format$[rsp]
	mov	rcx, rax
	call	_vfprintf_l
	mov	DWORD PTR _Result$[rsp], eax
; Line 961
	mov	QWORD PTR _ArgList$[rsp], 0
; Line 962
	mov	eax, DWORD PTR _Result$[rsp]
; Line 963
	add	rsp, 56					; 00000038H
	ret	0
printf	ENDP
_TEXT	ENDS
; Function compile flags: /Odtp
;	COMDAT _vfprintf_l
_TEXT	SEGMENT
_Stream$ = 64
_Format$ = 72
_Locale$ = 80
_ArgList$ = 88
_vfprintf_l PROC					; COMDAT
; File C:\Program Files (x86)\Windows Kits\10\include\10.0.19041.0\ucrt\stdio.h
; Line 644
$LN3:
	mov	QWORD PTR [rsp+32], r9
	mov	QWORD PTR [rsp+24], r8
	mov	QWORD PTR [rsp+16], rdx
	mov	QWORD PTR [rsp+8], rcx
	sub	rsp, 56					; 00000038H
; Line 645
	call	__local_stdio_printf_options
	mov	rcx, QWORD PTR _ArgList$[rsp]
	mov	QWORD PTR [rsp+32], rcx
	mov	r9, QWORD PTR _Locale$[rsp]
	mov	r8, QWORD PTR _Format$[rsp]
	mov	rdx, QWORD PTR _Stream$[rsp]
	mov	rcx, QWORD PTR [rax]
	call	__stdio_common_vfprintf
; Line 646
	add	rsp, 56					; 00000038H
	ret	0
_vfprintf_l ENDP
_TEXT	ENDS
; Function compile flags: /Odtp
;	COMDAT __local_stdio_scanf_options
_TEXT	SEGMENT
__local_stdio_scanf_options PROC			; COMDAT
; File C:\Program Files (x86)\Windows Kits\10\include\10.0.19041.0\ucrt\corecrt_stdio_config.h
; Line 102
	lea	rax, OFFSET FLAT:?_OptionsStorage@?1??__local_stdio_scanf_options@@9@9 ; `__local_stdio_scanf_options'::`2'::_OptionsStorage
; Line 103
	ret	0
__local_stdio_scanf_options ENDP
_TEXT	ENDS
; Function compile flags: /Odtp
;	COMDAT __local_stdio_printf_options
_TEXT	SEGMENT
__local_stdio_printf_options PROC			; COMDAT
; File C:\Program Files (x86)\Windows Kits\10\include\10.0.19041.0\ucrt\corecrt_stdio_config.h
; Line 92
	lea	rax, OFFSET FLAT:?_OptionsStorage@?1??__local_stdio_printf_options@@9@9 ; `__local_stdio_printf_options'::`2'::_OptionsStorage
; Line 93
	ret	0
__local_stdio_printf_options ENDP
_TEXT	ENDS
END
